target datalayout = "e-m:e-p270:32:32-p271:32:32-p272:64:64-i64:64-i128:128-f80:128-n8:16:32:64-S128"
target triple = "x86_64-pc-linux-gnu"

%struct.rsa_st = type { i32, ptr, i32, ptr, ptr, ptr, ptr, ptr, ptr, ptr, ptr, ptr, ptr, %struct.rsa_pss_params_30_st, ptr, ptr, %struct.crypto_ex_data_st, %struct.CRYPTO_REF_COUNT, i32, ptr, ptr, ptr, ptr, ptr, ptr, i32 }
%struct.rsa_pss_params_30_st = type { i32, %struct.anon, i32, i32 }
%struct.anon = type { i32, i32 }
%struct.crypto_ex_data_st = type { ptr, ptr }
%struct.CRYPTO_REF_COUNT = type { i32 }
%struct.rsa_meth_st = type { ptr, ptr, ptr, ptr, ptr, ptr, ptr, ptr, ptr, i32, ptr, ptr, ptr, ptr, ptr }

; Function Attrs: nounwind uwtable
define i32 @RSA_generate_key_ex(ptr noundef %0, i32 noundef %1, ptr noundef %2, ptr noundef %3) #0 {
  %5 = alloca i32, align 4
  %6 = alloca ptr, align 8
  %7 = alloca i32, align 4
  %8 = alloca ptr, align 8
  %9 = alloca ptr, align 8
  store ptr %0, ptr %6, align 8, !tbaa !3
  store i32 %1, ptr %7, align 4, !tbaa !8
  store ptr %2, ptr %8, align 8, !tbaa !10
  store ptr %3, ptr %9, align 8, !tbaa !12
  %10 = load ptr, ptr %6, align 8, !tbaa !3
  %11 = getelementptr inbounds nuw %struct.rsa_st, ptr %10, i32 0, i32 3
  %12 = load ptr, ptr %11, align 8, !tbaa !14
  %13 = getelementptr inbounds nuw %struct.rsa_meth_st, ptr %12, i32 0, i32 13
  %14 = load ptr, ptr %13, align 8, !tbaa !28
  %15 = icmp ne ptr %14, null
  br i1 %15, label %16, label %27

16:                                               ; preds = %4
  %17 = load ptr, ptr %6, align 8, !tbaa !3
  %18 = getelementptr inbounds nuw %struct.rsa_st, ptr %17, i32 0, i32 3
  %19 = load ptr, ptr %18, align 8, !tbaa !14
  %20 = getelementptr inbounds nuw %struct.rsa_meth_st, ptr %19, i32 0, i32 13
  %21 = load ptr, ptr %20, align 8, !tbaa !28
  %22 = load ptr, ptr %6, align 8, !tbaa !3
  %23 = load i32, ptr %7, align 4, !tbaa !8
  %24 = load ptr, ptr %8, align 8, !tbaa !10
  %25 = load ptr, ptr %9, align 8, !tbaa !12
  %26 = call i32 %21(ptr noundef %22, i32 noundef %23, ptr noundef %24, ptr noundef %25)
  store i32 %26, ptr %5, align 4
  br label %33

27:                                               ; preds = %4
  %28 = load ptr, ptr %6, align 8, !tbaa !3
  %29 = load i32, ptr %7, align 4, !tbaa !8
  %30 = load ptr, ptr %8, align 8, !tbaa !10
  %31 = load ptr, ptr %9, align 8, !tbaa !12
  %32 = call i32 @RSA_generate_multi_prime_key(ptr noundef %28, i32 noundef %29, i32 noundef 2, ptr noundef %30, ptr noundef %31)
  store i32 %32, ptr %5, align 4
  br label %33

33:                                               ; preds = %27, %16
  %34 = load i32, ptr %5, align 4
  ret i32 %34
}