; Function Attrs: nounwind uwtable
define i32 @RSA_generate_key_ex(ptr noundef %0, i32 noundef %1, ptr noundef %2, ptr noundef %3) local_unnamed_addr #0 {
  %5 = getelementptr inbounds nuw i8, ptr %0, i64 24
  %6 = load ptr, ptr %5, align 8, !tbaa !3
  %7 = getelementptr inbounds nuw i8, ptr %6, i64 104
  %8 = load ptr, ptr %7, align 8, !tbaa !22
  %.not = icmp eq ptr %8, null
  br i1 %.not, label %11, label %9

9:                                                ; preds = %4
  %10 = tail call i32 %8(ptr noundef nonnull %0, i32 noundef %1, ptr noundef %2, ptr noundef %3) #4
  br label %13

11:                                               ; preds = %4
  %12 = tail call i32 @RSA_generate_multi_prime_key(ptr noundef nonnull %0, i32 noundef %1, i32 noundef 2, ptr noundef %2, ptr noundef %3)
  br label %13

13:                                               ; preds = %11, %9
  %.0 = phi i32 [ %10, %9 ], [ %12, %11 ]
  ret i32 %.0
}